target datalayout = "e-m:e-p270:32:32-p271:32:32-p272:64:64-i64:64-i128:128-f80:128-n8:16:32:64-S128"
target triple = "x86_64-pc-linux-gnu"

%struct._psqlSettings = type { ptr, i32, ptr, i8, ptr, ptr, %struct.printQueryOpt, ptr, ptr, ptr, i8, i8, i32, i32, ptr, ptr, i8, [4 x ptr], i8, i32, ptr, i8, i32, ptr, ptr, i64, i64, i8, ptr, ptr, ptr, i8, i8, i8, i8, i8, i8, i8, i32, i32, i32, i32, i32, i32, i32, i32, ptr, ptr, ptr, i32, i8, i32 }
%struct.printQueryOpt = type { %struct.printTableOpt, ptr, ptr, ptr, i8, ptr, i32 }
%struct.printTableOpt = type { i32, i16, i32, i32, i16, i16, i32, i8, i8, i8, i8, i64, ptr, %struct.separator, %struct.separator, [2 x i8], i8, ptr, i32, i32, i32, i32, i32, i32 }
%struct.separator = type { ptr, i8 }

@pset = external global %struct._psqlSettings, align 8
@.str.303 = private unnamed_addr constant [9 x i8] c"commands\00", align 1
@.str.304 = private unnamed_addr constant [8 x i8] c"options\00", align 1
@.str.305 = private unnamed_addr constant [10 x i8] c"variables\00", align 1

; Function Attrs: nounwind uwtable
define internal void @ignore_slash_options(ptr noundef %0) #0 {
  %2 = alloca ptr, align 8
  %3 = alloca ptr, align 8
  store ptr %0, ptr %2, align 8
  call void @llvm.lifetime.start.p0(i64 8, ptr %3) #10
  br label %4

4:                                                ; preds = %8, %1
  %5 = load ptr, ptr %2, align 8
  %6 = call ptr @psql_scan_slash_option(ptr noundef %5, i32 noundef 0, ptr noundef null, i1 noundef zeroext false)
  store ptr %6, ptr %3, align 8
  %7 = icmp ne ptr %6, null
  br i1 %7, label %8, label %10

8:                                                ; preds = %4
  %9 = load ptr, ptr %3, align 8
  call void @free(ptr noundef %9) #10
  br label %4, !llvm.loop !18

10:                                               ; preds = %4
  call void @llvm.lifetime.end.p0(i64 8, ptr %3) #10
  ret void
}

; Function Attrs: nounwind uwtable
define internal i32 @exec_command_slash_command_help(ptr noundef %0, i1 noundef zeroext %1) #0 {
  %3 = alloca ptr, align 8
  %4 = alloca i8, align 1
  %5 = alloca ptr, align 8
  store ptr %0, ptr %3, align 8
  %6 = zext i1 %1 to i8
  store i8 %6, ptr %4, align 1
  %7 = load i8, ptr %4, align 1, !range !4, !noundef !5
  %8 = trunc i8 %7 to i1
  br i1 %8, label %9, label %38

9:                                                ; preds = %2
  call void @llvm.lifetime.start.p0(i64 8, ptr %5) #10
  %10 = load ptr, ptr %3, align 8
  %11 = call ptr @psql_scan_slash_option(ptr noundef %10, i32 noundef 0, ptr noundef null, i1 noundef zeroext false)
  store ptr %11, ptr %5, align 8
  %12 = load ptr, ptr %5, align 8
  %13 = icmp ne ptr %12, null
  br i1 %13, label %14, label %18

14:                                               ; preds = %9
  %15 = load ptr, ptr %5, align 8
  %16 = call i32 @strcmp(ptr noundef %15, ptr noundef @.str.303) #11
  %17 = icmp eq i32 %16, 0
  br i1 %17, label %18, label %20

18:                                               ; preds = %14, %9
  %19 = load i16, ptr getelementptr inbounds nuw (%struct.printTableOpt, ptr getelementptr inbounds nuw (%struct._psqlSettings, ptr @pset, i32 0, i32 6), i32 0, i32 5), align 2
  call void @slashUsage(i16 noundef zeroext %19)
  br label %36

20:                                               ; preds = %14
  %21 = load ptr, ptr %5, align 8
  %22 = call i32 @strcmp(ptr noundef %21, ptr noundef @.str.304) #11
  %23 = icmp eq i32 %22, 0
  br i1 %23, label %24, label %26

24:                                               ; preds = %20
  %25 = load i16, ptr getelementptr inbounds nuw (%struct.printTableOpt, ptr getelementptr inbounds nuw (%struct._psqlSettings, ptr @pset, i32 0, i32 6), i32 0, i32 5), align 2
  call void @usage(i16 noundef zeroext %25)
  br label %35

26:                                               ; preds = %20
  %27 = load ptr, ptr %5, align 8
  %28 = call i32 @strcmp(ptr noundef %27, ptr noundef @.str.305) #11
  %29 = icmp eq i32 %28, 0
  br i1 %29, label %30, label %32

30:                                               ; preds = %26
  %31 = load i16, ptr getelementptr inbounds nuw (%struct.printTableOpt, ptr getelementptr inbounds nuw (%struct._psqlSettings, ptr @pset, i32 0, i32 6), i32 0, i32 5), align 2
  call void @helpVariables(i16 noundef zeroext %31)
  br label %34

32:                                               ; preds = %26
  %33 = load i16, ptr getelementptr inbounds nuw (%struct.printTableOpt, ptr getelementptr inbounds nuw (%struct._psqlSettings, ptr @pset, i32 0, i32 6), i32 0, i32 5), align 2
  call void @slashUsage(i16 noundef zeroext %33)
  br label %34

34:                                               ; preds = %32, %30
  br label %35

35:                                               ; preds = %34, %24
  br label %36

36:                                               ; preds = %35, %18
  %37 = load ptr, ptr %5, align 8
  call void @free(ptr noundef %37) #10
  call void @llvm.lifetime.end.p0(i64 8, ptr %5) #10
  br label %40

38:                                               ; preds = %2
  %39 = load ptr, ptr %3, align 8
  call void @ignore_slash_options(ptr noundef %39)
  br label %40

40:                                               ; preds = %38, %36
  ret i32 2
}