; Function Attrs: nounwind uwtable
define internal fastcc void @exec_command_slash_command_help(ptr noundef %0, i1 noundef zeroext %1) unnamed_addr #0 {
  %3 = tail call ptr @psql_scan_slash_option(ptr noundef %0, i32 noundef 0, ptr noundef null, i1 noundef zeroext false) #16
  %.not = icmp eq ptr %3, null
  br i1 %1, label %4, label %22

4:                                                ; preds = %2
  br i1 %.not, label %8, label %5

5:                                                ; preds = %4
  %6 = tail call i32 @strcmp(ptr noundef nonnull dereferenceable(1) %3, ptr noundef nonnull dereferenceable(9) @.str.303) #17
  %7 = icmp eq i32 %6, 0
  br i1 %7, label %8, label %10

8:                                                ; preds = %5, %4
  %9 = load i16, ptr getelementptr inbounds nuw (i8, ptr @pset, i64 66), align 2
  tail call void @slashUsage(i16 noundef zeroext %9) #16
  br label %21

10:                                               ; preds = %5
  %11 = tail call i32 @strcmp(ptr noundef nonnull dereferenceable(1) %3, ptr noundef nonnull dereferenceable(8) @.str.304) #17
  %12 = icmp eq i32 %11, 0
  br i1 %12, label %13, label %15

13:                                               ; preds = %10
  %14 = load i16, ptr getelementptr inbounds nuw (i8, ptr @pset, i64 66), align 2
  tail call void @usage(i16 noundef zeroext %14) #16
  br label %21

15:                                               ; preds = %10
  %16 = tail call i32 @strcmp(ptr noundef nonnull dereferenceable(1) %3, ptr noundef nonnull dereferenceable(10) @.str.305) #17
  %17 = icmp eq i32 %16, 0
  %18 = load i16, ptr getelementptr inbounds nuw (i8, ptr @pset, i64 66), align 2
  br i1 %17, label %19, label %20

19:                                               ; preds = %15
  tail call void @helpVariables(i16 noundef zeroext %18) #16
  br label %21

20:                                               ; preds = %15
  tail call void @slashUsage(i16 noundef zeroext %18) #16
  br label %21

21:                                               ; preds = %13, %20, %19, %8
  tail call void @free(ptr noundef %3) #16
  br label %ignore_slash_options.exit

22:                                               ; preds = %2
  br i1 %.not, label %ignore_slash_options.exit, label %.lr.ph.i

.lr.ph.i:                                         ; preds = %22, %.lr.ph.i
  %23 = phi ptr [ %24, %.lr.ph.i ], [ %3, %22 ]
  tail call void @free(ptr noundef nonnull %23) #16
  %24 = tail call ptr @psql_scan_slash_option(ptr noundef %0, i32 noundef 0, ptr noundef null, i1 noundef zeroext false) #16
  %.not.i = icmp eq ptr %24, null
  br i1 %.not.i, label %ignore_slash_options.exit, label %.lr.ph.i, !llvm.loop !10

ignore_slash_options.exit:                        ; preds = %.lr.ph.i, %22, %21
  ret void
}